target datalayout = "e-m:e-p270:32:32-p271:32:32-p272:64:64-i64:64-i128:128-f80:128-n8:16:32:64-S128"
target triple = "x86_64-pc-linux-gnu"

%struct._object = type { %union.anon, ptr }
%union.anon = type { i64 }
%struct.anon = type { i32, i32 }
%struct.PyMutex = type { i8 }
%struct._xid_lookup_state = type { %struct._PyXIData_registry_t }
%struct._PyXIData_registry_t = type { i32, i32, %struct.PyMutex, ptr }
%struct.llist_node = type { ptr, ptr }
%struct.PyWideStringList = type { i64, ptr }
%struct._pending_calls = type { ptr, %struct.PyMutex, i32, i32, i32, [300 x %struct._pending_call], i32, i32 }
%struct._pending_call = type { ptr, ptr, i32 }
%struct._stoptheworld_state = type { %struct.PyMutex, i8, i8, i8, %struct.PyEvent, i64, ptr }
%struct.PyEvent = type { i8 }
%struct.PyGC_Head = type { i64, i64 }
%struct._is = type { %struct._ceval_state, ptr, i64, i64, i32, i64, i32, i32, i32, i64, %struct.pythreads, ptr, ptr, i64, %struct._gc_runtime_state, ptr, ptr, %struct._import_state, %struct._gil_runtime_state, %struct.codecs_state, %struct.PyConfig, i64, ptr, ptr, ptr, ptr, [8 x ptr], i8, i64, [255 x ptr], %struct._PyXI_state_t, ptr, ptr, ptr, %struct._warnings_runtime_state, %struct.atexit_state, %struct._stoptheworld_state, %struct._qsbr_shared, ptr, ptr, [8 x ptr], [8 x ptr], [8 x ptr], i8, i8, %struct._py_object_state, %struct._Py_unicode_state, %struct._Py_long_state, %struct._dtoa_state, %struct._py_func_state, %struct._py_code_state, %struct._Py_dict_state, %struct._Py_exc_state, %struct._Py_mem_interp_free_queue, %struct.ast_state, %struct.types_state, %struct.callable_cache, i8, ptr, i64, %struct._rare_events, ptr, %struct._Py_GlobalMonitors, i8, i8, i64, i64, [8 x [19 x ptr]], [8 x ptr], [8 x i64], %struct._Py_interp_cached_objects, %struct._Py_interp_static_objects, i64, %struct._PyThreadStateImpl }
%struct._ceval_state = type { i64, i32, ptr, i32, %struct._pending_calls }
%struct.pythreads = type { i64, ptr, ptr, ptr, i64, i64 }
%struct._gc_runtime_state = type { ptr, i32, i32, i32, %struct.gc_generation, [2 x %struct.gc_generation], %struct.gc_generation, [3 x %struct.gc_generation_stats], i32, ptr, ptr, i64, i64, i32, i32 }
%struct.gc_generation = type { %struct.PyGC_Head, i32, i32 }
%struct.gc_generation_stats = type { i64, i64, i64 }
%struct._import_state = type { ptr, ptr, ptr, i32, i32, i32, ptr, %struct._PyRecursiveMutex, %struct.anon.2 }
%struct._PyRecursiveMutex = type { %struct.PyMutex, i64, i64 }
%struct.anon.2 = type { i32, i64, i32 }
%struct._gil_runtime_state = type { i64, ptr, i32, i64, %union.pthread_cond_t, %union.pthread_mutex_t, %union.pthread_cond_t, %union.pthread_mutex_t }
%union.pthread_cond_t = type { %struct.__pthread_cond_s }
%struct.__pthread_cond_s = type { %union.__atomic_wide_counter, %union.__atomic_wide_counter, [2 x i32], [2 x i32], i32, i32, [2 x i32] }
%union.__atomic_wide_counter = type { i64 }
%union.pthread_mutex_t = type { %struct.__pthread_mutex_s }
%struct.__pthread_mutex_s = type { i32, i32, i32, i32, i32, i16, i16, %struct.__pthread_internal_list }
%struct.__pthread_internal_list = type { ptr, ptr }
%struct.codecs_state = type { ptr, ptr, ptr, i32 }
%struct.PyConfig = type { i32, i32, i32, i32, i32, i32, i64, i32, i32, i32, i32, i32, i32, i32, ptr, i32, ptr, ptr, ptr, i32, %struct.PyWideStringList, %struct.PyWideStringList, %struct.PyWideStringList, %struct.PyWideStringList, i32, i32, i32, i32, i32, i32, i32, i32, i32, i32, i32, i32, i32, ptr, ptr, ptr, i32, i32, i32, i32, i32, ptr, ptr, ptr, ptr, i32, %struct.PyWideStringList, ptr, ptr, ptr, ptr, ptr, ptr, ptr, i32, ptr, ptr, ptr, ptr, i32, i32, i32 }
%struct._PyXI_state_t = type { %struct._xid_lookup_state, %struct.xi_exceptions }
%struct.xi_exceptions = type { ptr, ptr, ptr }
%struct._warnings_runtime_state = type { ptr, ptr, ptr, %struct._PyRecursiveMutex, i64 }
%struct.atexit_state = type { ptr, ptr }
%struct._qsbr_shared = type { i64, i64, ptr, i64, %struct.PyMutex, ptr }
%struct._py_object_state = type { %struct._Py_freelists, i32 }
%struct._Py_freelists = type { %struct._Py_freelist, %struct._Py_freelist, [20 x %struct._Py_freelist], %struct._Py_freelist, %struct._Py_freelist, %struct._Py_freelist, %struct._Py_freelist, %struct._Py_freelist, %struct._Py_freelist, %struct._Py_freelist, %struct._Py_freelist, %struct._Py_freelist, %struct._Py_freelist, %struct._Py_freelist, %struct._Py_freelist, %struct._Py_freelist }
%struct._Py_freelist = type { ptr, i64 }
%struct._Py_unicode_state = type { %struct._Py_unicode_fs_codec, ptr, %struct._Py_unicode_ids }
%struct._Py_unicode_fs_codec = type { ptr, i32, ptr, i32 }
%struct._Py_unicode_ids = type { i64, ptr }
%struct._Py_long_state = type { i32 }
%struct._dtoa_state = type { [8 x ptr], [8 x ptr], [288 x double], ptr }
%struct._py_func_state = type { i32, [4096 x %struct._func_version_cache_item] }
%struct._func_version_cache_item = type { ptr, ptr }
%struct._py_code_state = type { %struct.PyMutex, ptr }
%struct._Py_dict_state = type { i32, [8 x ptr] }
%struct._Py_exc_state = type { ptr, ptr, i32, ptr }
%struct._Py_mem_interp_free_queue = type { i32, %struct.PyMutex, %struct.llist_node }
%struct.ast_state = type { %struct._PyOnceFlag, i32, ptr, ptr, ptr, ptr, ptr, ptr, ptr, ptr, ptr, ptr, ptr, ptr, ptr, ptr, ptr, ptr, ptr, ptr, ptr, ptr, ptr, ptr, ptr, ptr, ptr, ptr, ptr, ptr, ptr, ptr, ptr, ptr, ptr, ptr, ptr, ptr, ptr, ptr, ptr, ptr, ptr, ptr, ptr, ptr, ptr, ptr, ptr, ptr, ptr, ptr, ptr, ptr, ptr, ptr, ptr, ptr, ptr, ptr, ptr, ptr, ptr, ptr, ptr, ptr, ptr, ptr, ptr, ptr, ptr, ptr, ptr, ptr, ptr, ptr, ptr, ptr, ptr, ptr, ptr, ptr, ptr, ptr, ptr, ptr, ptr, ptr, ptr, ptr, ptr, ptr, ptr, ptr, ptr, ptr, ptr, ptr, ptr, ptr, ptr, ptr, ptr, ptr, ptr, ptr, ptr, ptr, ptr, ptr, ptr, ptr, ptr, ptr, ptr, ptr, ptr, ptr, ptr, ptr, ptr, ptr, ptr, ptr, ptr, ptr, ptr, ptr, ptr, ptr, ptr, ptr, ptr, ptr, ptr, ptr, ptr, ptr, ptr, ptr, ptr, ptr, ptr, ptr, ptr, ptr, ptr, ptr, ptr, ptr, ptr, ptr, ptr, ptr, ptr, ptr, ptr, ptr, ptr, ptr, ptr, ptr, ptr, ptr, ptr, ptr, ptr, ptr, ptr, ptr, ptr, ptr, ptr, ptr, ptr, ptr, ptr, ptr, ptr, ptr, ptr, ptr, ptr, ptr, ptr, ptr, ptr, ptr, ptr, ptr, ptr, ptr, ptr, ptr, ptr, ptr, ptr, ptr, ptr, ptr, ptr, ptr, ptr, ptr, ptr, ptr, ptr, ptr, ptr, ptr, ptr, ptr, ptr, ptr, ptr, ptr, ptr, ptr, ptr, ptr, ptr, ptr, ptr, ptr, ptr, ptr, ptr, ptr, ptr, ptr, ptr, ptr, ptr, ptr, ptr, ptr, ptr, ptr, ptr, ptr, ptr, ptr, ptr, ptr, ptr }
%struct._PyOnceFlag = type { i8 }
%struct.types_state = type { i32, %struct.type_cache, %struct.anon.4, %struct.anon.5, %struct.PyMutex, [4096 x ptr] }
%struct.type_cache = type { [4096 x %struct.type_cache_entry] }
%struct.type_cache_entry = type { i32, ptr, ptr }
%struct.anon.4 = type { i64, [200 x %struct.managed_static_type_state] }
%struct.managed_static_type_state = type { ptr, i32, i32, i32, ptr, ptr, ptr }
%struct.anon.5 = type { i64, i64, [10 x %struct.managed_static_type_state] }
%struct.callable_cache = type { ptr, ptr, ptr, ptr }
%struct._rare_events = type { i8, i8, i8, i8, i8 }
%struct._Py_GlobalMonitors = type { [16 x i8] }
%struct._Py_interp_cached_objects = type { ptr, ptr, ptr, [10 x ptr], ptr, ptr, ptr, ptr, ptr, ptr, ptr }
%struct._Py_interp_static_objects = type { %struct.anon.6 }
%struct.anon.6 = type { i32, %struct.PyGC_Head, %struct.PyHamtObject, %struct.PyBaseExceptionObject }
%struct.PyHamtObject = type { %struct._object, ptr, ptr, i64 }
%struct.PyBaseExceptionObject = type { %struct._object, ptr, ptr, ptr, ptr, ptr, ptr, i8 }
%struct._PyThreadStateImpl = type { %struct._ts, ptr, ptr, ptr, %struct.llist_node }
%struct._ts = type { ptr, ptr, ptr, i64, %struct.anon.1, i32, i32, i32, i32, i32, i32, i32, i32, ptr, ptr, ptr, ptr, ptr, ptr, ptr, ptr, i32, ptr, i64, i64, ptr, i64, i32, ptr, ptr, ptr, i64, i64, ptr, ptr, ptr, %struct._err_stackitem, ptr, i64, ptr, ptr }
%struct.anon.1 = type { i32 }
%struct._err_stackitem = type { ptr, ptr }
%struct._PyMonitoringState = type { i8, i8 }

@PyExc_ValueError = external global ptr, align 8
@.str.10 = private unnamed_addr constant [44 x i8] c"Cannot disable %s events. Callback removed.\00", align 1
@MOST_SIGNIFICANT_BITS = internal constant [16 x i8] c"\FF\00\01\01\02\02\02\02\03\03\03\03\03\03\03\03", align 16
@_Py_tss_tstate = external thread_local global ptr, align 8
@.str.55 = private unnamed_addr constant [28 x i8] c"offset must be non-negative\00", align 1

; Function Attrs: alwaysinline nounwind uwtable
define internal i32 @_Py_IsImmortal(ptr noundef %0) #5 {
  %2 = alloca ptr, align 8
  store ptr %0, ptr %2, align 8, !tbaa !53
  %3 = load ptr, ptr %2, align 8, !tbaa !53
  %4 = getelementptr inbounds nuw %struct._object, ptr %3, i32 0, i32 0
  %5 = getelementptr inbounds nuw %struct.anon, ptr %4, i32 0, i32 0
  %6 = load i32, ptr %5, align 8, !tbaa !11
  %7 = icmp slt i32 %6, 0
  %8 = zext i1 %7 to i32
  ret i32 %8
}

; Function Attrs: alwaysinline nounwind uwtable
define internal void @Py_DECREF(ptr noundef %0) #5 {
  %2 = alloca ptr, align 8
  store ptr %0, ptr %2, align 8, !tbaa !53
  %3 = load ptr, ptr %2, align 8, !tbaa !53
  %4 = call i32 @_Py_IsImmortal(ptr noundef %3)
  %5 = icmp ne i32 %4, 0
  br i1 %5, label %6, label %7

6:                                                ; preds = %1
  br label %16

7:                                                ; preds = %1
  %8 = load ptr, ptr %2, align 8, !tbaa !53
  %9 = getelementptr inbounds nuw %struct._object, ptr %8, i32 0, i32 0
  %10 = getelementptr inbounds nuw %struct.anon, ptr %9, i32 0, i32 0
  %11 = load i32, ptr %10, align 8, !tbaa !11
  %12 = add i32 %11, -1
  store i32 %12, ptr %10, align 8, !tbaa !11
  %13 = icmp eq i32 %12, 0
  br i1 %13, label %14, label %16

14:                                               ; preds = %7
  %15 = load ptr, ptr %2, align 8, !tbaa !53
  call void @_Py_Dealloc(ptr noundef %15)
  br label %16

16:                                               ; preds = %6, %14, %7
  ret void
}

; Function Attrs: inlinehint nounwind uwtable
define internal i32 @most_significant_bit(i8 noundef zeroext %0) #2 {
  %2 = alloca i32, align 4
  %3 = alloca i8, align 1
  store i8 %0, ptr %3, align 1, !tbaa !11
  %4 = load i8, ptr %3, align 1, !tbaa !11
  %5 = zext i8 %4 to i32
  %6 = icmp sgt i32 %5, 15
  br i1 %6, label %7, label %16

7:                                                ; preds = %1
  %8 = load i8, ptr %3, align 1, !tbaa !11
  %9 = zext i8 %8 to i32
  %10 = ashr i32 %9, 4
  %11 = sext i32 %10 to i64
  %12 = getelementptr [16 x i8], ptr @MOST_SIGNIFICANT_BITS, i64 0, i64 %11
  %13 = load i8, ptr %12, align 1, !tbaa !11
  %14 = sext i8 %13 to i32
  %15 = add i32 %14, 4
  store i32 %15, ptr %2, align 4
  br label %22

16:                                               ; preds = %1
  %17 = load i8, ptr %3, align 1, !tbaa !11
  %18 = zext i8 %17 to i64
  %19 = getelementptr [16 x i8], ptr @MOST_SIGNIFICANT_BITS, i64 0, i64 %18
  %20 = load i8, ptr %19, align 1, !tbaa !11
  %21 = sext i8 %20 to i32
  store i32 %21, ptr %2, align 4
  br label %22

22:                                               ; preds = %16, %7
  %23 = load i32, ptr %2, align 4
  ret i32 %23
}

; Function Attrs: inlinehint nounwind uwtable
define internal ptr @_PyThreadState_GET() #2 {
  %1 = call align 8 ptr @llvm.threadlocal.address.p0(ptr align 8 @_Py_tss_tstate)
  %2 = load ptr, ptr %1, align 8, !tbaa !39
  ret ptr %2
}

; Function Attrs: nounwind uwtable
define internal i32 @capi_call_instrumentation(ptr noundef %0, ptr noundef %1, i32 noundef %2, ptr noundef %3, i64 noundef %4, i32 noundef %5) #0 {
  %7 = alloca i32, align 4
  %8 = alloca ptr, align 8
  %9 = alloca ptr, align 8
  %10 = alloca i32, align 4
  %11 = alloca ptr, align 8
  %12 = alloca i64, align 8
  %13 = alloca i32, align 4
  %14 = alloca ptr, align 8
  %15 = alloca ptr, align 8
  %16 = alloca i8, align 1
  %17 = alloca i32, align 4
  %18 = alloca ptr, align 8
  %19 = alloca i64, align 8
  %20 = alloca ptr, align 8
  %21 = alloca i32, align 4
  %22 = alloca i32, align 4
  %23 = alloca i32, align 4
  %24 = alloca ptr, align 8
  %25 = alloca ptr, align 8
  store ptr %0, ptr %8, align 8, !tbaa !179
  store ptr %1, ptr %9, align 8, !tbaa !53
  store i32 %2, ptr %10, align 4, !tbaa !9
  store ptr %3, ptr %11, align 8, !tbaa !44
  store i64 %4, ptr %12, align 8, !tbaa !43
  store i32 %5, ptr %13, align 4, !tbaa !9
  call void @llvm.lifetime.start.p0(i64 8, ptr %14) #8
  %26 = call ptr @_PyThreadState_GET()
  store ptr %26, ptr %14, align 8, !tbaa !39
  call void @llvm.lifetime.start.p0(i64 8, ptr %15) #8
  %27 = load ptr, ptr %14, align 8, !tbaa !39
  %28 = getelementptr inbounds nuw %struct._ts, ptr %27, i32 0, i32 2
  %29 = load ptr, ptr %28, align 8, !tbaa !54
  store ptr %29, ptr %15, align 8, !tbaa !55
  call void @llvm.lifetime.start.p0(i64 1, ptr %16) #8
  %30 = load ptr, ptr %8, align 8, !tbaa !179
  %31 = getelementptr inbounds nuw %struct._PyMonitoringState, ptr %30, i32 0, i32 0
  %32 = load i8, ptr %31, align 1, !tbaa !183
  store i8 %32, ptr %16, align 1, !tbaa !11
  %33 = load ptr, ptr %9, align 8, !tbaa !53
  %34 = load ptr, ptr %11, align 8, !tbaa !44
  %35 = getelementptr ptr, ptr %34, i64 1
  store ptr %33, ptr %35, align 8, !tbaa !53
  %36 = load i32, ptr %10, align 4, !tbaa !9
  %37 = icmp slt i32 %36, 0
  br i1 %37, label %38, label %40

38:                                               ; preds = %6
  %39 = load ptr, ptr @PyExc_ValueError, align 8, !tbaa !53
  call void @PyErr_SetString(ptr noundef %39, ptr noundef @.str.55)
  store i32 -1, ptr %7, align 4
  store i32 1, ptr %17, align 4
  br label %136

40:                                               ; preds = %6
  %41 = load i32, ptr %13, align 4, !tbaa !9
  %42 = icmp ne i32 %41, 5
  br i1 %42, label %43, label %57

43:                                               ; preds = %40
  call void @llvm.lifetime.start.p0(i64 8, ptr %18) #8
  %44 = load i32, ptr %10, align 4, !tbaa !9
  %45 = sext i32 %44 to i64
  %46 = call ptr @PyLong_FromLong(i64 noundef %45)
  store ptr %46, ptr %18, align 8, !tbaa !53
  %47 = load ptr, ptr %18, align 8, !tbaa !53
  %48 = icmp eq ptr %47, null
  br i1 %48, label %49, label %50

49:                                               ; preds = %43
  store i32 -1, ptr %7, align 4
  store i32 1, ptr %17, align 4
  br label %54

50:                                               ; preds = %43
  %51 = load ptr, ptr %18, align 8, !tbaa !53
  %52 = load ptr, ptr %11, align 8, !tbaa !44
  %53 = getelementptr ptr, ptr %52, i64 2
  store ptr %51, ptr %53, align 8, !tbaa !53
  store i32 0, ptr %17, align 4
  br label %54

54:                                               ; preds = %50, %49
  call void @llvm.lifetime.end.p0(i64 8, ptr %18) #8
  %55 = load i32, ptr %17, align 4
  switch i32 %55, label %136 [
    i32 0, label %56
  ]

56:                                               ; preds = %54
  br label %57

57:                                               ; preds = %56, %40
  call void @llvm.lifetime.start.p0(i64 8, ptr %19) #8
  %58 = load i64, ptr %12, align 8, !tbaa !43
  %59 = or i64 %58, -9223372036854775808
  store i64 %59, ptr %19, align 8, !tbaa !43
  call void @llvm.lifetime.start.p0(i64 8, ptr %20) #8
  %60 = load ptr, ptr %11, align 8, !tbaa !44
  %61 = getelementptr ptr, ptr %60, i64 1
  store ptr %61, ptr %20, align 8, !tbaa !44
  call void @llvm.lifetime.start.p0(i64 4, ptr %21) #8
  store i32 0, ptr %21, align 4, !tbaa !9
  br label %62

62:                                               ; preds = %133, %57
  %63 = load i8, ptr %16, align 1, !tbaa !11
  %64 = icmp ne i8 %63, 0
  br i1 %64, label %65, label %134

65:                                               ; preds = %62
  call void @llvm.lifetime.start.p0(i64 4, ptr %22) #8
  %66 = load i8, ptr %16, align 1, !tbaa !11
  %67 = call i32 @most_significant_bit(i8 noundef zeroext %66)
  store i32 %67, ptr %22, align 4, !tbaa !9
  %68 = load i32, ptr %22, align 4, !tbaa !9
  %69 = shl i32 1, %68
  %70 = load i8, ptr %16, align 1, !tbaa !11
  %71 = zext i8 %70 to i32
  %72 = xor i32 %71, %69
  %73 = trunc i32 %72 to i8
  store i8 %73, ptr %16, align 1, !tbaa !11
  call void @llvm.lifetime.start.p0(i64 4, ptr %23) #8
  %74 = load ptr, ptr %15, align 8, !tbaa !55
  %75 = load ptr, ptr %14, align 8, !tbaa !39
  %76 = load ptr, ptr %20, align 8, !tbaa !44
  %77 = load i64, ptr %19, align 8, !tbaa !43
  %78 = load i32, ptr %22, align 4, !tbaa !9
  %79 = trunc i32 %78 to i8
  %80 = load i32, ptr %13, align 4, !tbaa !9
  %81 = call i32 @call_one_instrument(ptr noundef %74, ptr noundef %75, ptr noundef %76, i64 noundef %77, i8 noundef signext %79, i32 noundef %80)
  store i32 %81, ptr %23, align 4, !tbaa !9
  %82 = load i32, ptr %23, align 4, !tbaa !9
  %83 = icmp eq i32 %82, 0
  br i1 %83, label %84, label %85

84:                                               ; preds = %65
  br label %130

85:                                               ; preds = %65
  %86 = load i32, ptr %23, align 4, !tbaa !9
  %87 = icmp slt i32 %86, 0
  br i1 %87, label %88, label %89

88:                                               ; preds = %85
  store i32 -1, ptr %21, align 4, !tbaa !9
  store i32 3, ptr %17, align 4
  br label %131

89:                                               ; preds = %85
  %90 = load i32, ptr %13, align 4, !tbaa !9
  %91 = icmp slt i32 %90, 11
  br i1 %91, label %118, label %92

92:                                               ; preds = %89
  %93 = load ptr, ptr @PyExc_ValueError, align 8, !tbaa !53
  %94 = load i32, ptr %13, align 4, !tbaa !9
  %95 = sext i32 %94 to i64
  %96 = getelementptr [19 x ptr], ptr @event_names, i64 0, i64 %95
  %97 = load ptr, ptr %96, align 8, !tbaa !56
  %98 = call ptr (ptr, ptr, ...) @PyErr_Format(ptr noundef %93, ptr noundef @.str.10, ptr noundef %97)
  br label %99

99:                                               ; preds = %92
  call void @llvm.lifetime.start.p0(i64 8, ptr %24) #8
  %100 = load ptr, ptr %15, align 8, !tbaa !55
  %101 = getelementptr inbounds nuw %struct._is, ptr %100, i32 0, i32 67
  %102 = load i32, ptr %22, align 4, !tbaa !9
  %103 = sext i32 %102 to i64
  %104 = getelementptr [8 x [19 x ptr]], ptr %101, i64 0, i64 %103
  %105 = load i32, ptr %13, align 4, !tbaa !9
  %106 = sext i32 %105 to i64
  %107 = getelementptr [19 x ptr], ptr %104, i64 0, i64 %106
  store ptr %107, ptr %24, align 8, !tbaa !44
  call void @llvm.lifetime.start.p0(i64 8, ptr %25) #8
  %108 = load ptr, ptr %24, align 8, !tbaa !44
  %109 = load ptr, ptr %108, align 8, !tbaa !53
  store ptr %109, ptr %25, align 8, !tbaa !53
  %110 = load ptr, ptr %25, align 8, !tbaa !53
  %111 = icmp ne ptr %110, null
  br i1 %111, label %112, label %115

112:                                              ; preds = %99
  %113 = load ptr, ptr %24, align 8, !tbaa !44
  store ptr null, ptr %113, align 8, !tbaa !53
  %114 = load ptr, ptr %25, align 8, !tbaa !53
  call void @Py_DECREF(ptr noundef %114)
  br label %115

115:                                              ; preds = %112, %99
  call void @llvm.lifetime.end.p0(i64 8, ptr %25) #8
  call void @llvm.lifetime.end.p0(i64 8, ptr %24) #8
  br label %116

116:                                              ; preds = %115
  br label %117

117:                                              ; preds = %116
  store i32 -1, ptr %21, align 4, !tbaa !9
  store i32 3, ptr %17, align 4
  br label %131

118:                                              ; preds = %89
  %119 = load i32, ptr %22, align 4, !tbaa !9
  %120 = shl i32 1, %119
  %121 = xor i32 %120, -1
  %122 = load ptr, ptr %8, align 8, !tbaa !179
  %123 = getelementptr inbounds nuw %struct._PyMonitoringState, ptr %122, i32 0, i32 0
  %124 = load i8, ptr %123, align 1, !tbaa !183
  %125 = zext i8 %124 to i32
  %126 = and i32 %125, %121
  %127 = trunc i32 %126 to i8
  store i8 %127, ptr %123, align 1, !tbaa !183
  br label %128

128:                                              ; preds = %118
  br label %129

129:                                              ; preds = %128
  br label %130

130:                                              ; preds = %129, %84
  store i32 0, ptr %17, align 4
  br label %131

131:                                              ; preds = %130, %117, %88
  call void @llvm.lifetime.end.p0(i64 4, ptr %23) #8
  call void @llvm.lifetime.end.p0(i64 4, ptr %22) #8
  %132 = load i32, ptr %17, align 4
  switch i32 %132, label %138 [
    i32 0, label %133
    i32 3, label %134
  ]

133:                                              ; preds = %131
  br label %62, !llvm.loop !186

134:                                              ; preds = %131, %62
  %135 = load i32, ptr %21, align 4, !tbaa !9
  store i32 %135, ptr %7, align 4
  store i32 1, ptr %17, align 4
  call void @llvm.lifetime.end.p0(i64 4, ptr %21) #8
  call void @llvm.lifetime.end.p0(i64 8, ptr %20) #8
  call void @llvm.lifetime.end.p0(i64 8, ptr %19) #8
  br label %136

136:                                              ; preds = %134, %54, %38
  call void @llvm.lifetime.end.p0(i64 1, ptr %16) #8
  call void @llvm.lifetime.end.p0(i64 8, ptr %15) #8
  call void @llvm.lifetime.end.p0(i64 8, ptr %14) #8
  %137 = load i32, ptr %7, align 4
  ret i32 %137

138:                                              ; preds = %131
  unreachable
}

; Function Attrs: nounwind uwtable
define dso_local i32 @_PyMonitoring_FireJumpEvent(ptr noundef %0, ptr noundef %1, i32 noundef %2, ptr noundef %3) #0 {
  %5 = alloca ptr, align 8
  %6 = alloca ptr, align 8
  %7 = alloca i32, align 4
  %8 = alloca ptr, align 8
  %9 = alloca [4 x ptr], align 16
  store ptr %0, ptr %5, align 8, !tbaa !179
  store ptr %1, ptr %6, align 8, !tbaa !53
  store i32 %2, ptr %7, align 4, !tbaa !9
  store ptr %3, ptr %8, align 8, !tbaa !53
  call void @llvm.lifetime.start.p0(i64 32, ptr %9) #8
  call void @llvm.memset.p0.i64(ptr align 16 %9, i8 0, i64 32, i1 false)
  %10 = getelementptr inbounds ptr, ptr %9, i64 3
  %11 = load ptr, ptr %8, align 8, !tbaa !53
  store ptr %11, ptr %10, align 8, !tbaa !53
  %12 = load ptr, ptr %5, align 8, !tbaa !179
  %13 = load ptr, ptr %6, align 8, !tbaa !53
  %14 = load i32, ptr %7, align 4, !tbaa !9
  %15 = getelementptr inbounds [4 x ptr], ptr %9, i64 0, i64 0
  %16 = call i32 @capi_call_instrumentation(ptr noundef %12, ptr noundef %13, i32 noundef %14, ptr noundef %15, i64 noundef 3, i32 noundef 7)
  call void @llvm.lifetime.end.p0(i64 32, ptr %9) #8
  ret i32 %16
}